target datalayout = "e-m:e-p270:32:32-p271:32:32-p272:64:64-i64:64-i128:128-f80:128-n8:16:32:64-S128"
target triple = "x86_64-pc-linux-gnu"

%struct.pairingheap_node = type { ptr, ptr, ptr }

@FirstSnapshotSet = dso_local global i8 0, align 1
@.str.1 = private unnamed_addr constant [10 x i8] c"snapmgr.c\00", align 1
@.str.3 = private unnamed_addr constant [60 x i8] c"cannot update SecondarySnapshot during a parallel operation\00", align 1
@__func__.GetLatestSnapshot = private unnamed_addr constant [18 x i8] c"GetLatestSnapshot\00", align 1
@SecondarySnapshot = internal global ptr null, align 8
@SecondarySnapshotData = internal global { i32, i32, i32, [4 x i8], ptr, i32, [4 x i8], ptr, i32, i8, i8, i8, i8, i32, i32, ptr, i32, i32, %struct.pairingheap_node, i64 } zeroinitializer, align 8

; Function Attrs: nounwind uwtable
define dso_local ptr @GetLatestSnapshot() #0 {
  %1 = alloca ptr, align 8
  %2 = call zeroext i1 @IsInParallelMode()
  br i1 %2, label %3, label %13

3:                                                ; preds = %0
  br label %4

4:                                                ; preds = %3
  br i1 true, label %5, label %7

5:                                                ; preds = %4
  %6 = call zeroext i1 @errstart_cold(i32 noundef 21, ptr noundef null) #13
  br i1 %6, label %9, label %11

7:                                                ; preds = %4
  %8 = call zeroext i1 @errstart(i32 noundef 21, ptr noundef null)
  br i1 %8, label %9, label %11

9:                                                ; preds = %7, %5
  %10 = call i32 (ptr, ...) @errmsg_internal(ptr noundef @.str.3)
  call void @errfinish(ptr noundef @.str.1, i32 noundef 291, ptr noundef @__func__.GetLatestSnapshot)
  br label %11

11:                                               ; preds = %9, %7, %5
  unreachable

12:                                               ; No predecessors!
  br label %13

13:                                               ; preds = %12, %0
  %14 = load i8, ptr @FirstSnapshotSet, align 1, !range !4, !noundef !5
  %15 = trunc i8 %14 to i1
  br i1 %15, label %18, label %16

16:                                               ; preds = %13
  %17 = call ptr @GetTransactionSnapshot()
  store ptr %17, ptr %1, align 8
  br label %21

18:                                               ; preds = %13
  %19 = call ptr @GetSnapshotData(ptr noundef @SecondarySnapshotData)
  store ptr %19, ptr @SecondarySnapshot, align 8
  %20 = load ptr, ptr @SecondarySnapshot, align 8
  store ptr %20, ptr %1, align 8
  br label %21

21:                                               ; preds = %18, %16
  %22 = load ptr, ptr %1, align 8
  ret ptr %22
}