; Function Attrs: nounwind uwtable
define dso_local ptr @GetLatestSnapshot() local_unnamed_addr #0 {
  %1 = tail call zeroext i1 @IsInParallelMode() #18
  br i1 %1, label %2, label %5

2:                                                ; preds = %0
  %3 = tail call zeroext i1 @errstart_cold(i32 noundef 21, ptr noundef null) #17
  tail call void @llvm.assume(i1 %3)
  %4 = tail call i32 (ptr, ...) @errmsg_internal(ptr noundef nonnull @.str.3) #18
  tail call void @errfinish(ptr noundef nonnull @.str.1, i32 noundef 291, ptr noundef nonnull @__func__.GetLatestSnapshot) #18
  unreachable

5:                                                ; preds = %0
  %6 = load i8, ptr @FirstSnapshotSet, align 1, !range !4, !noundef !5
  %7 = trunc nuw i8 %6 to i1
  br i1 %7, label %10, label %8

8:                                                ; preds = %5
  %9 = tail call ptr @GetTransactionSnapshot()
  br label %12

10:                                               ; preds = %5
  %11 = tail call ptr @GetSnapshotData(ptr noundef nonnull @SecondarySnapshotData) #18
  store ptr %11, ptr @SecondarySnapshot, align 8
  br label %12

12:                                               ; preds = %10, %8
  %.0 = phi ptr [ %11, %10 ], [ %9, %8 ]
  ret ptr %.0
}